; Function Attrs: mustprogress nounwind uwtable
define void @_ZN3gmx21SimulationInputHandleC2ESt10unique_ptrINS_6detail25SimulationInputHandleImplESt14default_deleteIS3_EE(ptr noundef nonnull align 8 dereferenceable(8) %0, ptr nocapture noundef %1) unnamed_addr #1 align 2 personality ptr @__gxx_personality_v0 {
  %3 = load ptr, ptr %1, align 8
  store ptr null, ptr %1, align 8
  invoke void @_ZN3gmx6detail32SimulationInputHandleImplDeleterC1Ev(ptr noundef nonnull align 1 dereferenceable(1) %0)
          to label %_ZNSt10unique_ptrIN3gmx6detail25SimulationInputHandleImplENS1_32SimulationInputHandleImplDeleterEEC2IS3_vEEPS2_.exit unwind label %4

4:                                                ; preds = %2
  %5 = landingpad { ptr, i32 }
          catch ptr null
  %6 = extractvalue { ptr, i32 } %5, 0
  tail call void @__clang_call_terminate(ptr %6) #15
  unreachable

_ZNSt10unique_ptrIN3gmx6detail25SimulationInputHandleImplENS1_32SimulationInputHandleImplDeleterEEC2IS3_vEEPS2_.exit: ; preds = %2
  store ptr %3, ptr %0, align 8
  ret void
}